target datalayout = "e-m:e-p270:32:32-p271:32:32-p272:64:64-i64:64-i128:128-f80:128-n8:16:32:64-S128"
target triple = "x86_64-pc-linux-gnu"

%class.Register = type { i32 }
%class.KRegister = type { i32 }

; Function Attrs: mustprogress nounwind uwtable
define hidden void @_ZN17C2_MacroAssembler20vector_mask_compressE9KRegisterS0_8RegisterS1_i(ptr noundef nonnull align 8 dereferenceable(40) %0, i32 %1, i32 %2, i32 %3, i32 %4, i32 noundef %5) #1 align 2 {
  %7 = alloca %class.KRegister, align 4
  %8 = alloca %class.KRegister, align 4
  %9 = alloca %class.Register, align 4
  %10 = alloca %class.Register, align 4
  %11 = alloca ptr, align 8
  %12 = alloca i32, align 4
  %13 = alloca %class.Register, align 4
  %14 = alloca %class.KRegister, align 4
  %15 = alloca %class.Register, align 4
  %16 = alloca %class.Register, align 4
  %17 = alloca %class.Register, align 4
  %18 = alloca %class.Register, align 4
  %19 = alloca %class.Register, align 4
  %20 = alloca %class.KRegister, align 4
  %21 = alloca %class.Register, align 4
  %22 = getelementptr inbounds %class.KRegister, ptr %7, i32 0, i32 0
  store i32 %1, ptr %22, align 4
  %23 = getelementptr inbounds %class.KRegister, ptr %8, i32 0, i32 0
  store i32 %2, ptr %23, align 4
  %24 = getelementptr inbounds %class.Register, ptr %9, i32 0, i32 0
  store i32 %3, ptr %24, align 4
  %25 = getelementptr inbounds %class.Register, ptr %10, i32 0, i32 0
  store i32 %4, ptr %25, align 4
  store ptr %0, ptr %11, align 8
  store i32 %5, ptr %12, align 4
  %26 = load ptr, ptr %11, align 8
  call void @llvm.memcpy.p0.p0.i64(ptr align 4 %13, ptr align 4 %9, i64 4, i1 false)
  call void @llvm.memcpy.p0.p0.i64(ptr align 4 %14, ptr align 4 %8, i64 4, i1 false)
  %27 = getelementptr inbounds %class.Register, ptr %13, i32 0, i32 0
  %28 = load i32, ptr %27, align 4
  %29 = getelementptr inbounds %class.KRegister, ptr %14, i32 0, i32 0
  %30 = load i32, ptr %29, align 4
  call void @_ZN14MacroAssembler4kmovE8Register9KRegister(ptr noundef nonnull align 8 dereferenceable(40) %26, i32 %28, i32 %30)
  call void @llvm.memcpy.p0.p0.i64(ptr align 4 %15, ptr align 4 %9, i64 4, i1 false)
  %31 = load i32, ptr %12, align 4
  %32 = sub nsw i32 64, %31
  %33 = zext i32 %32 to i64
  %34 = lshr i64 -1, %33
  %35 = trunc i64 %34 to i32
  %36 = getelementptr inbounds %class.Register, ptr %15, i32 0, i32 0
  %37 = load i32, ptr %36, align 4
  call void @_ZN9Assembler4andqE8Registeri(ptr noundef nonnull align 8 dereferenceable(40) %26, i32 %37, i32 noundef %35)
  call void @llvm.memcpy.p0.p0.i64(ptr align 4 %16, ptr align 4 %10, i64 4, i1 false)
  %38 = getelementptr inbounds %class.Register, ptr %16, i32 0, i32 0
  %39 = load i32, ptr %38, align 4
  call void @_ZN9Assembler5mov64E8Registerl(ptr noundef nonnull align 8 dereferenceable(40) %26, i32 %39, i64 noundef -1)
  call void @llvm.memcpy.p0.p0.i64(ptr align 4 %17, ptr align 4 %10, i64 4, i1 false)
  call void @llvm.memcpy.p0.p0.i64(ptr align 4 %18, ptr align 4 %10, i64 4, i1 false)
  call void @llvm.memcpy.p0.p0.i64(ptr align 4 %19, ptr align 4 %9, i64 4, i1 false)
  %40 = getelementptr inbounds %class.Register, ptr %17, i32 0, i32 0
  %41 = load i32, ptr %40, align 4
  %42 = getelementptr inbounds %class.Register, ptr %18, i32 0, i32 0
  %43 = load i32, ptr %42, align 4
  %44 = getelementptr inbounds %class.Register, ptr %19, i32 0, i32 0
  %45 = load i32, ptr %44, align 4
  call void @_ZN9Assembler5pextqE8RegisterS0_S0_(ptr noundef nonnull align 8 dereferenceable(40) %26, i32 %41, i32 %43, i32 %45)
  call void @llvm.memcpy.p0.p0.i64(ptr align 4 %20, ptr align 4 %7, i64 4, i1 false)
  call void @llvm.memcpy.p0.p0.i64(ptr align 4 %21, ptr align 4 %10, i64 4, i1 false)
  %46 = getelementptr inbounds %class.KRegister, ptr %20, i32 0, i32 0
  %47 = load i32, ptr %46, align 4
  %48 = getelementptr inbounds %class.Register, ptr %21, i32 0, i32 0
  %49 = load i32, ptr %48, align 4
  call void @_ZN14MacroAssembler4kmovE9KRegister8Register(ptr noundef nonnull align 8 dereferenceable(40) %26, i32 %47, i32 %49)
  ret void
}