; Function Attrs: mustprogress nounwind uwtable
define hidden void @_ZN17C2_MacroAssembler20vector_mask_compressE9KRegisterS0_8RegisterS1_i(ptr noundef nonnull align 8 dereferenceable(40) %0, i32 %1, i32 %2, i32 %3, i32 %4, i32 noundef %5) local_unnamed_addr #0 align 2 {
  tail call void @_ZN14MacroAssembler4kmovE8Register9KRegister(ptr noundef nonnull align 8 dereferenceable(40) %0, i32 %3, i32 %2) #11
  %7 = sub nsw i32 64, %5
  %8 = zext nneg i32 %7 to i64
  %9 = lshr i64 -1, %8
  %10 = trunc i64 %9 to i32
  tail call void @_ZN9Assembler4andqE8Registeri(ptr noundef nonnull align 8 dereferenceable(40) %0, i32 %3, i32 noundef %10) #11
  tail call void @_ZN9Assembler5mov64E8Registerl(ptr noundef nonnull align 8 dereferenceable(40) %0, i32 %4, i64 noundef -1) #11
  tail call void @_ZN9Assembler5pextqE8RegisterS0_S0_(ptr noundef nonnull align 8 dereferenceable(40) %0, i32 %4, i32 %4, i32 %3) #11
  tail call void @_ZN14MacroAssembler4kmovE9KRegister8Register(ptr noundef nonnull align 8 dereferenceable(40) %0, i32 %1, i32 %4) #11
  ret void
}